target datalayout = "e-m:e-p270:32:32-p271:32:32-p272:64:64-i64:64-i128:128-f80:128-n8:16:32:64-S128"
target triple = "x86_64-unknown-linux-gnu"

; Function Attrs: mustprogress nounwind uwtable
define linkonce_odr noundef double @_ZNSt14numeric_limitsIdE9quiet_NaNEv() #0 comdat align 2 {
entry:
  ret double 0x7FF8000000000000
}

; Function Attrs: mustprogress nounwind uwtable
define linkonce_odr noundef zeroext i1 @_ZSt8isfinited(double noundef %__x) #0 comdat {
entry:
  %__x.addr = alloca double, align 8
  store double %__x, ptr %__x.addr, align 8
  %0 = load double, ptr %__x.addr, align 8
  %1 = call i1 @llvm.is.fpclass.f64(double %0, i32 504)
  ret i1 %1
}

; Function Attrs: mustprogress nounwind uwtable
define hidden noundef double @_ZN6hermes2vm8makeTimeEdddd(double noundef %hour, double noundef %min, double noundef %sec, double noundef %ms) #0 {
entry:
  %retval = alloca double, align 8
  %hour.addr = alloca double, align 8
  %min.addr = alloca double, align 8
  %sec.addr = alloca double, align 8
  %ms.addr = alloca double, align 8
  %h = alloca double, align 8
  %m = alloca double, align 8
  %s = alloca double, align 8
  %milli = alloca double, align 8
  store double %hour, ptr %hour.addr, align 8
  store double %min, ptr %min.addr, align 8
  store double %sec, ptr %sec.addr, align 8
  store double %ms, ptr %ms.addr, align 8
  %0 = load double, ptr %hour.addr, align 8
  %call = call noundef zeroext i1 @_ZSt8isfinited(double noundef %0)
  br i1 %call, label %lor.lhs.false, label %if.then

lor.lhs.false:                                    ; preds = %entry
  %1 = load double, ptr %min.addr, align 8
  %call1 = call noundef zeroext i1 @_ZSt8isfinited(double noundef %1)
  br i1 %call1, label %lor.lhs.false2, label %if.then

lor.lhs.false2:                                   ; preds = %lor.lhs.false
  %2 = load double, ptr %sec.addr, align 8
  %call3 = call noundef zeroext i1 @_ZSt8isfinited(double noundef %2)
  br i1 %call3, label %lor.lhs.false4, label %if.then

lor.lhs.false4:                                   ; preds = %lor.lhs.false2
  %3 = load double, ptr %ms.addr, align 8
  %call5 = call noundef zeroext i1 @_ZSt8isfinited(double noundef %3)
  br i1 %call5, label %if.end, label %if.then

if.then:                                          ; preds = %lor.lhs.false4, %lor.lhs.false2, %lor.lhs.false, %entry
  %call6 = call noundef double @_ZNSt14numeric_limitsIdE9quiet_NaNEv() #7
  store double %call6, ptr %retval, align 8
  br label %return

if.end:                                           ; preds = %lor.lhs.false4
  %4 = load double, ptr %hour.addr, align 8
  %5 = call double @llvm.trunc.f64(double %4)
  store double %5, ptr %h, align 8
  %6 = load double, ptr %min.addr, align 8
  %7 = call double @llvm.trunc.f64(double %6)
  store double %7, ptr %m, align 8
  %8 = load double, ptr %sec.addr, align 8
  %9 = call double @llvm.trunc.f64(double %8)
  store double %9, ptr %s, align 8
  %10 = load double, ptr %ms.addr, align 8
  %11 = call double @llvm.trunc.f64(double %10)
  store double %11, ptr %milli, align 8
  %12 = load double, ptr %h, align 8
  %13 = load double, ptr %m, align 8
  %mul7 = fmul double %13, 6.000000e+04
  %14 = call double @llvm.fmuladd.f64(double %12, double 3.600000e+06, double %mul7)
  %15 = load double, ptr %s, align 8
  %16 = call double @llvm.fmuladd.f64(double %15, double 1.000000e+03, double %14)
  %17 = load double, ptr %milli, align 8
  %add = fadd double %16, %17
  store double %add, ptr %retval, align 8
  br label %return

return:                                           ; preds = %if.end, %if.then
  %18 = load double, ptr %retval, align 8
  ret double %18
}