; Function Attrs: mustprogress nofree norecurse nosync nounwind willreturn memory(none) uwtable
define hidden noundef double @_ZN6hermes2vm8makeTimeEdddd(double noundef %hour, double noundef %min, double noundef %sec, double noundef %ms) local_unnamed_addr #2 {
entry:
  %0 = tail call double @llvm.fabs.f64(double %hour)
  %1 = fcmp one double %0, 0x7FF0000000000000
  %2 = tail call double @llvm.fabs.f64(double %min)
  %3 = fcmp one double %2, 0x7FF0000000000000
  %or.cond = and i1 %1, %3
  %4 = tail call double @llvm.fabs.f64(double %sec)
  %5 = fcmp one double %4, 0x7FF0000000000000
  %or.cond7 = and i1 %or.cond, %5
  %6 = tail call double @llvm.fabs.f64(double %ms)
  %7 = fcmp one double %6, 0x7FF0000000000000
  %or.cond9 = and i1 %or.cond7, %7
  br i1 %or.cond9, label %if.end, label %return

if.end:                                           ; preds = %entry
  %8 = tail call double @llvm.trunc.f64(double %hour)
  %9 = tail call double @llvm.trunc.f64(double %min)
  %10 = tail call double @llvm.trunc.f64(double %sec)
  %11 = tail call double @llvm.trunc.f64(double %ms)
  %mul7 = fmul double %9, 6.000000e+04
  %12 = tail call double @llvm.fmuladd.f64(double %8, double 3.600000e+06, double %mul7)
  %13 = tail call double @llvm.fmuladd.f64(double %10, double 1.000000e+03, double %12)
  %add = fadd double %11, %13
  br label %return

return:                                           ; preds = %entry, %if.end
  %retval.0 = phi double [ %add, %if.end ], [ 0x7FF8000000000000, %entry ]
  ret double %retval.0
}